target datalayout = "e-m:e-p270:32:32-p271:32:32-p272:64:64-i64:64-i128:128-f80:128-n8:16:32:64-S128"
target triple = "x86_64-pc-linux-gnu"

%"class.std::basic_ostream" = type { ptr, %"class.std::basic_ios" }
%"class.std::basic_ios" = type { %"class.std::ios_base", ptr, i8, i8, ptr, ptr, ptr, ptr }
%"class.std::ios_base" = type { ptr, i64, i64, i32, i32, i32, ptr, %"struct.std::ios_base::_Words", [8 x %"struct.std::ios_base::_Words"], i32, ptr, %"class.std::locale" }
%"struct.std::ios_base::_Words" = type { ptr, i64 }
%"class.std::locale" = type { ptr }
%struct.F = type { i8 }
%struct.B = type { i8 }

@.str.3 = private unnamed_addr constant [7 x i8] c"--perf\00", align 1
@_ZSt4cout = external global %"class.std::basic_ostream", align 8
@.str.4 = private unnamed_addr constant [18 x i8] c"Initialized with \00", align 1
@.str.5 = private unnamed_addr constant [10 x i8] c" cores...\00", align 1
@.str.6 = private unnamed_addr constant [29 x i8] c"TBB parallel_reduce.h took: \00", align 1
@.str.7 = private unnamed_addr constant [9 x i8] c" seconds\00", align 1
@.str.8 = private unnamed_addr constant [14 x i8] c"perfstats.raw\00", align 1
@.str.9 = private unnamed_addr constant [2 x i8] c"w\00", align 1
@.str.10 = private unnamed_addr constant [70 x i8] c"{'profile':'TBB Reduce_time','metric':'time','value':%f,'samples':1}\0A\00", align 1

; Function Attrs: mustprogress uwtable
define internal noundef i32 @_ZN32pxrInternal_v0_24__pxrReserved__19WorkParallelReduceNIZ16_DoSignatureTestvE1FZ16_DoSignatureTestvE1BiEET1_RKS3_mOT_OT0_(ptr noundef nonnull align 4 dereferenceable(4) %0, i64 noundef %1, ptr noundef nonnull align 1 dereferenceable(1) %2, ptr noundef nonnull align 1 dereferenceable(1) %3) #4 {
  %5 = alloca ptr, align 8
  %6 = alloca i64, align 8
  %7 = alloca ptr, align 8
  %8 = alloca ptr, align 8
  store ptr %0, ptr %5, align 8
  store i64 %1, ptr %6, align 8
  store ptr %2, ptr %7, align 8
  store ptr %3, ptr %8, align 8
  %9 = load ptr, ptr %5, align 8
  %10 = load i64, ptr %6, align 8
  %11 = load ptr, ptr %7, align 8
  %12 = load ptr, ptr %8, align 8
  %13 = call noundef i32 @_ZN32pxrInternal_v0_24__pxrReserved__19WorkParallelReduceNIRZ16_DoSignatureTestvE1FRZ16_DoSignatureTestvE1BiEET1_RKS5_mOT_OT0_m(ptr noundef nonnull align 4 dereferenceable(4) %9, i64 noundef %10, ptr noundef nonnull align 1 dereferenceable(1) %11, ptr noundef nonnull align 1 dereferenceable(1) %12, i64 noundef 1)
  ret i32 %13
}

; Function Attrs: mustprogress uwtable
define internal noundef i32 @_ZN32pxrInternal_v0_24__pxrReserved__19WorkParallelReduceNIRZ16_DoSignatureTestvE1FRZ16_DoSignatureTestvE1BiEET1_RKS5_mOT_OT0_(ptr noundef nonnull align 4 dereferenceable(4) %0, i64 noundef %1, ptr noundef nonnull align 1 dereferenceable(1) %2, ptr noundef nonnull align 1 dereferenceable(1) %3) #4 {
  %5 = alloca ptr, align 8
  %6 = alloca i64, align 8
  %7 = alloca ptr, align 8
  %8 = alloca ptr, align 8
  store ptr %0, ptr %5, align 8
  store i64 %1, ptr %6, align 8
  store ptr %2, ptr %7, align 8
  store ptr %3, ptr %8, align 8
  %9 = load ptr, ptr %5, align 8
  %10 = load i64, ptr %6, align 8
  %11 = load ptr, ptr %7, align 8
  %12 = load ptr, ptr %8, align 8
  %13 = call noundef i32 @_ZN32pxrInternal_v0_24__pxrReserved__19WorkParallelReduceNIRZ16_DoSignatureTestvE1FRZ16_DoSignatureTestvE1BiEET1_RKS5_mOT_OT0_m(ptr noundef nonnull align 4 dereferenceable(4) %9, i64 noundef %10, ptr noundef nonnull align 1 dereferenceable(1) %11, ptr noundef nonnull align 1 dereferenceable(1) %12, i64 noundef 1)
  ret i32 %13
}

; Function Attrs: mustprogress uwtable
define dso_local void @_Z16_DoSignatureTestv() #4 {
  %1 = alloca %struct.F, align 1
  %2 = alloca %struct.B, align 1
  %3 = alloca i32, align 4
  %4 = alloca %struct.F, align 1
  %5 = alloca %struct.B, align 1
  store i32 0, ptr %3, align 4
  %6 = call noundef i32 @_ZN32pxrInternal_v0_24__pxrReserved__19WorkParallelReduceNIRZ16_DoSignatureTestvE1FRZ16_DoSignatureTestvE1BiEET1_RKS5_mOT_OT0_(ptr noundef nonnull align 4 dereferenceable(4) %3, i64 noundef 100, ptr noundef nonnull align 1 dereferenceable(1) %1, ptr noundef nonnull align 1 dereferenceable(1) %2)
  %7 = call noundef i32 @_ZN32pxrInternal_v0_24__pxrReserved__19WorkParallelReduceNIZ16_DoSignatureTestvE1FZ16_DoSignatureTestvE1BiEET1_RKS3_mOT_OT0_(ptr noundef nonnull align 4 dereferenceable(4) %3, i64 noundef 100, ptr noundef nonnull align 1 dereferenceable(1) %4, ptr noundef nonnull align 1 dereferenceable(1) %5)
  ret void
}

; Function Attrs: mustprogress norecurse uwtable
define dso_local noundef i32 @main(i32 noundef %0, ptr noundef %1) #6 {
  %3 = alloca i32, align 4
  %4 = alloca i32, align 4
  %5 = alloca ptr, align 8
  %6 = alloca i8, align 1
  %7 = alloca i64, align 8
  %8 = alloca i64, align 8
  %9 = alloca double, align 8
  %10 = alloca ptr, align 8
  store i32 0, ptr %3, align 4
  store i32 %0, ptr %4, align 4
  store ptr %1, ptr %5, align 8
  %11 = load i32, ptr %4, align 4
  %12 = icmp sgt i32 %11, 1
  br i1 %12, label %13, label %20

13:                                               ; preds = %2
  %14 = load ptr, ptr %5, align 8
  %15 = getelementptr inbounds ptr, ptr %14, i64 1
  %16 = load ptr, ptr %15, align 8
  %17 = call i32 @strcmp(ptr noundef %16, ptr noundef @.str.3) #17
  %18 = icmp ne i32 %17, 0
  %19 = xor i1 %18, true
  br label %20

20:                                               ; preds = %13, %2
  %21 = phi i1 [ false, %2 ], [ %19, %13 ]
  %22 = zext i1 %21 to i8
  store i8 %22, ptr %6, align 1
  store i64 1000000, ptr %7, align 8
  %23 = load i8, ptr %6, align 1
  %24 = trunc i8 %23 to i1
  %25 = select i1 %24, i32 1000, i32 1
  %26 = sext i32 %25 to i64
  store i64 %26, ptr %8, align 8
  call void @_ZN32pxrInternal_v0_24__pxrReserved__30WorkSetMaximumConcurrencyLimitEv()
  %27 = call noundef nonnull align 8 dereferenceable(8) ptr @_ZStlsISt11char_traitsIcEERSt13basic_ostreamIcT_ES5_PKc(ptr noundef nonnull align 8 dereferenceable(8) @_ZSt4cout, ptr noundef @.str.4)
  %28 = call noundef i32 @_ZN32pxrInternal_v0_24__pxrReserved__31WorkGetPhysicalConcurrencyLimitEv()
  %29 = call noundef nonnull align 8 dereferenceable(8) ptr @_ZNSolsEj(ptr noundef nonnull align 8 dereferenceable(8) %27, i32 noundef %28)
  %30 = call noundef nonnull align 8 dereferenceable(8) ptr @_ZStlsISt11char_traitsIcEERSt13basic_ostreamIcT_ES5_PKc(ptr noundef nonnull align 8 dereferenceable(8) %29, ptr noundef @.str.5)
  %31 = call noundef nonnull align 8 dereferenceable(8) ptr @_ZNSolsEPFRSoS_E(ptr noundef nonnull align 8 dereferenceable(8) %30, ptr noundef @_ZSt4endlIcSt11char_traitsIcEERSt13basic_ostreamIT_T0_ES6_)
  %32 = load i8, ptr %6, align 1
  %33 = trunc i8 %32 to i1
  %34 = xor i1 %33, true
  %35 = load i64, ptr %8, align 8
  %36 = call noundef double @_Z10_DoTBBTestbim(i1 noundef zeroext %34, i32 noundef 1000000, i64 noundef %35)
  store double %36, ptr %9, align 8
  %37 = call noundef nonnull align 8 dereferenceable(8) ptr @_ZStlsISt11char_traitsIcEERSt13basic_ostreamIcT_ES5_PKc(ptr noundef nonnull align 8 dereferenceable(8) @_ZSt4cout, ptr noundef @.str.6)
  %38 = load double, ptr %9, align 8
  %39 = call noundef nonnull align 8 dereferenceable(8) ptr @_ZNSolsEd(ptr noundef nonnull align 8 dereferenceable(8) %37, double noundef %38)
  %40 = call noundef nonnull align 8 dereferenceable(8) ptr @_ZStlsISt11char_traitsIcEERSt13basic_ostreamIcT_ES5_PKc(ptr noundef nonnull align 8 dereferenceable(8) %39, ptr noundef @.str.7)
  %41 = call noundef nonnull align 8 dereferenceable(8) ptr @_ZNSolsEPFRSoS_E(ptr noundef nonnull align 8 dereferenceable(8) %40, ptr noundef @_ZSt4endlIcSt11char_traitsIcEERSt13basic_ostreamIT_T0_ES6_)
  call void @_Z16_DoSignatureTestv()
  %42 = load i8, ptr %6, align 1
  %43 = trunc i8 %42 to i1
  br i1 %43, label %44, label %51

44:                                               ; preds = %20
  %45 = call noundef ptr @_ZN32pxrInternal_v0_24__pxrReserved__12ArchOpenFileEPKcS1_(ptr noundef @.str.8, ptr noundef @.str.9)
  store ptr %45, ptr %10, align 8
  %46 = load ptr, ptr %10, align 8
  %47 = load double, ptr %9, align 8
  %48 = call i32 (ptr, ptr, ...) @fprintf(ptr noundef %46, ptr noundef @.str.10, double noundef %47) #3
  %49 = load ptr, ptr %10, align 8
  %50 = call i32 @fclose(ptr noundef %49)
  br label %51

51:                                               ; preds = %44, %20
  ret i32 0
}