; Function Attrs: mustprogress norecurse uwtable
define dso_local noundef i32 @main(i32 noundef %0, ptr noundef readonly captures(none) %1) local_unnamed_addr #6 {
  %3 = alloca %struct.F, align 1
  %4 = alloca %struct.B, align 1
  %5 = alloca i32, align 4
  %6 = alloca %struct.F, align 1
  %7 = alloca %struct.B, align 1
  %8 = icmp sgt i32 %0, 1
  br i1 %8, label %9, label %.thread

9:                                                ; preds = %2
  %10 = getelementptr inbounds nuw i8, ptr %1, i64 8
  %11 = load ptr, ptr %10, align 8
  %12 = tail call i32 @strcmp(ptr noundef nonnull dereferenceable(1) %11, ptr noundef nonnull dereferenceable(7) @.str.3) #26
  %.fr = freeze i32 %12
  %.not = icmp eq i32 %.fr, 0
  %spec.select = select i1 %.not, i64 1000, i64 1
  br label %.thread

.thread:                                          ; preds = %9, %2
  %13 = phi i1 [ false, %2 ], [ %.not, %9 ]
  %14 = phi i64 [ 1, %2 ], [ %spec.select, %9 ]
  tail call void @_ZN32pxrInternal_v0_24__pxrReserved__30WorkSetMaximumConcurrencyLimitEv()
  %15 = tail call noundef nonnull align 8 dereferenceable(8) ptr @_ZStlsISt11char_traitsIcEERSt13basic_ostreamIcT_ES5_PKc(ptr noundef nonnull align 8 dereferenceable(8) @_ZSt4cout, ptr noundef nonnull @.str.4)
  %16 = tail call noundef i32 @_ZN32pxrInternal_v0_24__pxrReserved__31WorkGetPhysicalConcurrencyLimitEv()
  %17 = tail call noundef nonnull align 8 dereferenceable(8) ptr @_ZNSolsEj(ptr noundef nonnull align 8 dereferenceable(8) %15, i32 noundef %16)
  %18 = tail call noundef nonnull align 8 dereferenceable(8) ptr @_ZStlsISt11char_traitsIcEERSt13basic_ostreamIcT_ES5_PKc(ptr noundef nonnull align 8 dereferenceable(8) %17, ptr noundef nonnull @.str.5)
  %19 = tail call noundef nonnull align 8 dereferenceable(8) ptr @_ZNSolsEPFRSoS_E(ptr noundef nonnull align 8 dereferenceable(8) %18, ptr noundef nonnull @_ZSt4endlIcSt11char_traitsIcEERSt13basic_ostreamIT_T0_ES6_)
  %20 = xor i1 %13, true
  %21 = tail call noundef double @_Z10_DoTBBTestbim(i1 noundef zeroext %20, i32 noundef 1000000, i64 noundef %14)
  %22 = tail call noundef nonnull align 8 dereferenceable(8) ptr @_ZStlsISt11char_traitsIcEERSt13basic_ostreamIcT_ES5_PKc(ptr noundef nonnull align 8 dereferenceable(8) @_ZSt4cout, ptr noundef nonnull @.str.6)
  %23 = tail call noundef nonnull align 8 dereferenceable(8) ptr @_ZNSolsEd(ptr noundef nonnull align 8 dereferenceable(8) %22, double noundef %21)
  %24 = tail call noundef nonnull align 8 dereferenceable(8) ptr @_ZStlsISt11char_traitsIcEERSt13basic_ostreamIcT_ES5_PKc(ptr noundef nonnull align 8 dereferenceable(8) %23, ptr noundef nonnull @.str.7)
  %25 = tail call noundef nonnull align 8 dereferenceable(8) ptr @_ZNSolsEPFRSoS_E(ptr noundef nonnull align 8 dereferenceable(8) %24, ptr noundef nonnull @_ZSt4endlIcSt11char_traitsIcEERSt13basic_ostreamIT_T0_ES6_)
  call void @llvm.lifetime.start.p0(i64 1, ptr nonnull %3)
  call void @llvm.lifetime.start.p0(i64 1, ptr nonnull %4)
  call void @llvm.lifetime.start.p0(i64 4, ptr nonnull %5)
  call void @llvm.lifetime.start.p0(i64 1, ptr nonnull %6)
  call void @llvm.lifetime.start.p0(i64 1, ptr nonnull %7)
  store i32 0, ptr %5, align 4
  call fastcc void @_ZN32pxrInternal_v0_24__pxrReserved__19WorkParallelReduceNIRZ16_DoSignatureTestvE1FRZ16_DoSignatureTestvE1BiEET1_RKS5_mOT_OT0_m(ptr noundef nonnull align 4 dereferenceable(4) %5, ptr noundef nonnull align 1 dereferenceable(1) %3, ptr noundef nonnull align 1 dereferenceable(1) %4)
  call fastcc void @_ZN32pxrInternal_v0_24__pxrReserved__19WorkParallelReduceNIRZ16_DoSignatureTestvE1FRZ16_DoSignatureTestvE1BiEET1_RKS5_mOT_OT0_m(ptr noundef nonnull align 4 dereferenceable(4) %5, ptr noundef nonnull align 1 dereferenceable(1) %6, ptr noundef nonnull align 1 dereferenceable(1) %7)
  call void @llvm.lifetime.end.p0(i64 1, ptr nonnull %3)
  call void @llvm.lifetime.end.p0(i64 1, ptr nonnull %4)
  call void @llvm.lifetime.end.p0(i64 4, ptr nonnull %5)
  call void @llvm.lifetime.end.p0(i64 1, ptr nonnull %6)
  call void @llvm.lifetime.end.p0(i64 1, ptr nonnull %7)
  br i1 %13, label %26, label %30

26:                                               ; preds = %.thread
  %27 = call noundef ptr @_ZN32pxrInternal_v0_24__pxrReserved__12ArchOpenFileEPKcS1_(ptr noundef nonnull @.str.8, ptr noundef nonnull @.str.9)
  %28 = call i32 (ptr, ptr, ...) @fprintf(ptr noundef %27, ptr noundef nonnull @.str.10, double noundef %21) #25
  %29 = call i32 @fclose(ptr noundef %27)
  br label %30

30:                                               ; preds = %26, %.thread
  ret i32 0
}